	.arch armv6
	.eabi_attribute 27, 3
	.fpu vfp
	.eabi_attribute 20, 1
	.eabi_attribute 21, 1
	.eabi_attribute 23, 3
	.eabi_attribute 24, 1
	.eabi_attribute 25, 1
	.eabi_attribute 26, 2
	.eabi_attribute 30, 6
	.eabi_attribute 34, 1
	.eabi_attribute 18, 4
	.file	"AppTrackerAndroid.cpp"
	.text
.Ltext0:
	.cfi_sections	.debug_frame
	.section	.text._Z21AppTrackerAndroidInitv,"ax",%progbits
	.align	2
	.global	_Z21AppTrackerAndroidInitv
	.hidden	_Z21AppTrackerAndroidInitv
	.type	_Z21AppTrackerAndroidInitv, %function
_Z21AppTrackerAndroidInitv:
.LFB0:
	.file 1 "C:\\Marmalade\\7.7\\extensions\\AppTrackerAndroid\\source\\generic\\AppTrackerAndroid.cpp"
	.loc 1 15 0
	.cfi_startproc
	@ args = 0, pretend = 0, frame = 0
	@ frame_needed = 0, uses_anonymous_args = 0
	stmfd	sp!, {r3, lr}
	.cfi_def_cfa_offset 8
	.cfi_offset 3, -8
	.cfi_offset 14, -4
	.loc 1 17 0
	bl	_Z30AppTrackerAndroidInit_platformv(PLT)
	mov	r3, r0
	.loc 1 18 0
	mov	r0, r3
	ldmfd	sp!, {r3, pc}
	.cfi_endproc
.LFE0:
	.size	_Z21AppTrackerAndroidInitv, .-_Z21AppTrackerAndroidInitv
	.section	.text._Z26AppTrackerAndroidTerminatev,"ax",%progbits
	.align	2
	.global	_Z26AppTrackerAndroidTerminatev
	.hidden	_Z26AppTrackerAndroidTerminatev
	.type	_Z26AppTrackerAndroidTerminatev, %function
_Z26AppTrackerAndroidTerminatev:
.LFB1:
	.loc 1 21 0
	.cfi_startproc
	@ args = 0, pretend = 0, frame = 0
	@ frame_needed = 0, uses_anonymous_args = 0
	stmfd	sp!, {r3, lr}
	.cfi_def_cfa_offset 8
	.cfi_offset 3, -8
	.cfi_offset 14, -4
	.loc 1 23 0
	bl	_Z35AppTrackerAndroidTerminate_platformv(PLT)
	.loc 1 24 0
	ldmfd	sp!, {r3, pc}
	.cfi_endproc
.LFE1:
	.size	_Z26AppTrackerAndroidTerminatev, .-_Z26AppTrackerAndroidTerminatev
	.section	.text.startSession,"ax",%progbits
	.align	2
	.global	startSession
	.hidden	startSession
	.type	startSession, %function
startSession:
.LFB2:
	.loc 1 27 0
	.cfi_startproc
	@ args = 0, pretend = 0, frame = 8
	@ frame_needed = 0, uses_anonymous_args = 0
	str	lr, [sp, #-4]!
	.cfi_def_cfa_offset 4
	.cfi_offset 14, -4
	sub	sp, sp, #12
	.cfi_def_cfa_offset 16
	str	r0, [sp, #4]
	.loc 1 28 0
	ldr	r0, [sp, #4]
	bl	_Z21startSession_platformPKc(PLT)
	mov	r3, r0
	.loc 1 29 0
	mov	r0, r3
	add	sp, sp, #12
	@ sp needed
	ldr	pc, [sp], #4
	.cfi_endproc
.LFE2:
	.size	startSession, .-startSession
	.section	.text.closeSession,"ax",%progbits
	.align	2
	.global	closeSession
	.hidden	closeSession
	.type	closeSession, %function
closeSession:
.LFB3:
	.loc 1 32 0
	.cfi_startproc
	@ args = 0, pretend = 0, frame = 0
	@ frame_needed = 0, uses_anonymous_args = 0
	stmfd	sp!, {r3, lr}
	.cfi_def_cfa_offset 8
	.cfi_offset 3, -8
	.cfi_offset 14, -4
	.loc 1 33 0
	bl	_Z21closeSession_platformv(PLT)
	mov	r3, r0
	.loc 1 34 0
	mov	r0, r3
	ldmfd	sp!, {r3, pc}
	.cfi_endproc
.LFE3:
	.size	closeSession, .-closeSession
	.section	.text.pause,"ax",%progbits
	.align	2
	.global	pause
	.hidden	pause
	.type	pause, %function
pause:
.LFB4:
	.loc 1 37 0
	.cfi_startproc
	@ args = 0, pretend = 0, frame = 0
	@ frame_needed = 0, uses_anonymous_args = 0
	stmfd	sp!, {r3, lr}
	.cfi_def_cfa_offset 8
	.cfi_offset 3, -8
	.cfi_offset 14, -4
	.loc 1 38 0
	bl	_Z14pause_platformv(PLT)
	mov	r3, r0
	.loc 1 39 0
	mov	r0, r3
	ldmfd	sp!, {r3, pc}
	.cfi_endproc
.LFE4:
	.size	pause, .-pause
	.section	.text.resume,"ax",%progbits
	.align	2
	.global	resume
	.hidden	resume
	.type	resume, %function
resume:
.LFB5:
	.loc 1 42 0
	.cfi_startproc
	@ args = 0, pretend = 0, frame = 0
	@ frame_needed = 0, uses_anonymous_args = 0
	stmfd	sp!, {r3, lr}
	.cfi_def_cfa_offset 8
	.cfi_offset 3, -8
	.cfi_offset 14, -4
	.loc 1 43 0
	bl	_Z15resume_platformv(PLT)
	mov	r3, r0
	.loc 1 44 0
	mov	r0, r3
	ldmfd	sp!, {r3, pc}
	.cfi_endproc
.LFE5:
	.size	resume, .-resume
	.section	.text.event,"ax",%progbits
	.align	2
	.global	event
	.hidden	event
	.type	event, %function
event:
.LFB6:
	.loc 1 47 0
	.cfi_startproc
	@ args = 0, pretend = 0, frame = 8
	@ frame_needed = 0, uses_anonymous_args = 0
	str	lr, [sp, #-4]!
	.cfi_def_cfa_offset 4
	.cfi_offset 14, -4
	sub	sp, sp, #12
	.cfi_def_cfa_offset 16
	str	r0, [sp, #4]
	.loc 1 48 0
	ldr	r0, [sp, #4]
	bl	_Z14event_platformPKc(PLT)
	mov	r3, r0
	.loc 1 49 0
	mov	r0, r3
	add	sp, sp, #12
	@ sp needed
	ldr	pc, [sp], #4
	.cfi_endproc
.LFE6:
	.size	event, .-event
	.section	.text.eventWithValue,"ax",%progbits
	.align	2
	.global	eventWithValue
	.hidden	eventWithValue
	.type	eventWithValue, %function
eventWithValue:
.LFB7:
	.loc 1 52 0
	.cfi_startproc
	@ args = 0, pretend = 0, frame = 8
	@ frame_needed = 0, uses_anonymous_args = 0
	str	lr, [sp, #-4]!
	.cfi_def_cfa_offset 4
	.cfi_offset 14, -4
	sub	sp, sp, #12
	.cfi_def_cfa_offset 16
	str	r0, [sp, #4]
	str	r1, [sp]
	.loc 1 53 0
	ldr	r0, [sp, #4]
	ldr	r1, [sp]
	bl	_Z23eventWithValue_platformPKci(PLT)
	mov	r3, r0
	.loc 1 54 0
	mov	r0, r3
	add	sp, sp, #12
	@ sp needed
	ldr	pc, [sp], #4
	.cfi_endproc
.LFE7:
	.size	eventWithValue, .-eventWithValue
	.section	.text.loadModule,"ax",%progbits
	.align	2
	.global	loadModule
	.hidden	loadModule
	.type	loadModule, %function
loadModule:
.LFB8:
	.loc 1 57 0
	.cfi_startproc
	@ args = 0, pretend = 0, frame = 8
	@ frame_needed = 0, uses_anonymous_args = 0
	str	lr, [sp, #-4]!
	.cfi_def_cfa_offset 4
	.cfi_offset 14, -4
	sub	sp, sp, #12
	.cfi_def_cfa_offset 16
	str	r0, [sp, #4]
	str	r1, [sp]
	.loc 1 58 0
	ldr	r0, [sp, #4]
	ldr	r1, [sp]
	bl	_Z19loadModule_platformPKcS0_(PLT)
	mov	r3, r0
	.loc 1 59 0
	mov	r0, r3
	add	sp, sp, #12
	@ sp needed
	ldr	pc, [sp], #4
	.cfi_endproc
.LFE8:
	.size	loadModule, .-loadModule
	.section	.text.loadModuleToCache,"ax",%progbits
	.align	2
	.global	loadModuleToCache
	.hidden	loadModuleToCache
	.type	loadModuleToCache, %function
loadModuleToCache:
.LFB9:
	.loc 1 62 0
	.cfi_startproc
	@ args = 0, pretend = 0, frame = 8
	@ frame_needed = 0, uses_anonymous_args = 0
	str	lr, [sp, #-4]!
	.cfi_def_cfa_offset 4
	.cfi_offset 14, -4
	sub	sp, sp, #12
	.cfi_def_cfa_offset 16
	str	r0, [sp, #4]
	str	r1, [sp]
	.loc 1 63 0
	ldr	r0, [sp, #4]
	ldr	r1, [sp]
	bl	_Z26loadModuleToCache_platformPKcS0_(PLT)
	mov	r3, r0
	.loc 1 64 0
	mov	r0, r3
	add	sp, sp, #12
	@ sp needed
	ldr	pc, [sp], #4
	.cfi_endproc
.LFE9:
	.size	loadModuleToCache, .-loadModuleToCache
	.section	.text.destroyModule,"ax",%progbits
	.align	2
	.global	destroyModule
	.hidden	destroyModule
	.type	destroyModule, %function
destroyModule:
.LFB10:
	.loc 1 67 0
	.cfi_startproc
	@ args = 0, pretend = 0, frame = 0
	@ frame_needed = 0, uses_anonymous_args = 0
	stmfd	sp!, {r3, lr}
	.cfi_def_cfa_offset 8
	.cfi_offset 3, -8
	.cfi_offset 14, -4
	.loc 1 68 0
	bl	_Z22destroyModule_platformv(PLT)
	mov	r3, r0
	.loc 1 69 0
	mov	r0, r3
	ldmfd	sp!, {r3, pc}
	.cfi_endproc
.LFE10:
	.size	destroyModule, .-destroyModule
	.section	.text.fixAdOrientation,"ax",%progbits
	.align	2
	.global	fixAdOrientation
	.hidden	fixAdOrientation
	.type	fixAdOrientation, %function
fixAdOrientation:
.LFB11:
	.loc 1 72 0
	.cfi_startproc
	@ args = 0, pretend = 0, frame = 8
	@ frame_needed = 0, uses_anonymous_args = 0
	str	lr, [sp, #-4]!
	.cfi_def_cfa_offset 4
	.cfi_offset 14, -4
	sub	sp, sp, #12
	.cfi_def_cfa_offset 16
	str	r0, [sp, #4]
	.loc 1 73 0
	ldr	r0, [sp, #4]
	bl	_Z25fixAdOrientation_platformi(PLT)
	mov	r3, r0
	.loc 1 74 0
	mov	r0, r3
	add	sp, sp, #12
	@ sp needed
	ldr	pc, [sp], #4
	.cfi_endproc
.LFE11:
	.size	fixAdOrientation, .-fixAdOrientation
	.text
.Letext0:
	.file 2 "../../../s3e/h/s3eTypes.h"
	.section	.note.GNU-stack,"",%progbits
